cnumpy.core.multiarray
_reconstruct
p0
(cnumpy
ndarray
p1
(I0
tp2
S'b'
p3
tp4
Rp5
(I1
(I4
I4
tp6
cnumpy
dtype
p7
(S'O8'
p8
I0
I1
tp9
Rp10
(I3
S'|'
p11
NNNI-1
I-1
I63
tp12
bI00
(lp13
(iCluster
Cluster
p14
(dp15
S'prototipos'
p16
(lp17
(iIndividual
Individual
p18
(dp19
S'indice'
p20
S'90'
p21
sS'id2'
p22
S'EXE'
p23
sS'nome'
p24
S'class_exe90'
p25
sbasg20
I0
sS'deltas'
p26
(dp27
sS'point'
p28
(iPoint
Point
p29
(dp30
S'y'
p31
I0
sS'x'
p32
I0
sbsS'pesos'
p33
(lp34
sS'objetos'
p35
(lp36
sba(iCluster
Cluster
p37
(dp38
g16
(lp39
(iIndividual
Individual
p40
(dp41
g20
S'19'
p42
sg22
S'EXE'
p43
sg24
S'class_exe19'
p44
sbasg20
I1
sg26
(dp45
sg28
(iPoint
Point
p46
(dp47
g31
I1
sg32
I0
sbsg33
(lp48
sg35
(lp49
sba(iCluster
Cluster
p50
(dp51
g16
(lp52
(iIndividual
Individual
p53
(dp54
g20
S'9'
p55
sg22
S'EXE'
p56
sg24
S'class_exe9'
p57
sbasg20
I2
sg26
(dp58
sg28
(iPoint
Point
p59
(dp60
g31
I2
sg32
I0
sbsg33
(lp61
sg35
(lp62
sba(iCluster
Cluster
p63
(dp64
g16
(lp65
(iIndividual
Individual
p66
(dp67
g20
S'135'
p68
sg22
S'EXE'
p69
sg24
S'class_exe135'
p70
sbasg20
I3
sg26
(dp71
sg28
(iPoint
Point
p72
(dp73
g31
I3
sg32
I0
sbsg33
(lp74
sg35
(lp75
sba(iCluster
Cluster
p76
(dp77
g16
(lp78
(iIndividual
Individual
p79
(dp80
g20
S'18'
p81
sg22
S'EXE'
p82
sg24
S'class_exe18'
p83
sbasg20
I4
sg26
(dp84
sg28
(iPoint
Point
p85
(dp86
g31
I0
sg32
I1
sbsg33
(lp87
sg35
(lp88
sba(iCluster
Cluster
p89
(dp90
g16
(lp91
(iIndividual
Individual
p92
(dp93
g20
S'73'
p94
sg22
S'EXE'
p95
sg24
S'class_exe73'
p96
sbasg20
I5
sg26
(dp97
sg28
(iPoint
Point
p98
(dp99
g31
I1
sg32
I1
sbsg33
(lp100
sg35
(lp101
sba(iCluster
Cluster
p102
(dp103
g16
(lp104
(iIndividual
Individual
p105
(dp106
g20
g68
sg22
g69
sg24
g70
sbasg20
I6
sg26
(dp107
sg28
(iPoint
Point
p108
(dp109
g31
I2
sg32
I1
sbsg33
(lp110
sg35
(lp111
sba(iCluster
Cluster
p112
(dp113
g16
(lp114
(iIndividual
Individual
p115
(dp116
g20
S'175'
p117
sg22
S'EXE'
p118
sg24
S'class_exe175'
p119
sbasg20
I7
sg26
(dp120
sg28
(iPoint
Point
p121
(dp122
g31
I3
sg32
I1
sbsg33
(lp123
sg35
(lp124
sba(iCluster
Cluster
p125
(dp126
g16
(lp127
(iIndividual
Individual
p128
(dp129
g20
S'29'
p130
sg22
S'EXE'
p131
sg24
S'class_exe29'
p132
sbasg20
I8
sg26
(dp133
sg28
(iPoint
Point
p134
(dp135
g31
I0
sg32
I2
sbsg33
(lp136
sg35
(lp137
sba(iCluster
Cluster
p138
(dp139
g16
(lp140
(iIndividual
Individual
p141
(dp142
g20
g42
sg22
g43
sg24
g44
sbasg20
I9
sg26
(dp143
sg28
(iPoint
Point
p144
(dp145
g31
I1
sg32
I2
sbsg33
(lp146
sg35
(lp147
sba(iCluster
Cluster
p148
(dp149
g16
(lp150
(iIndividual
Individual
p151
(dp152
g20
S'32'
p153
sg22
S'EXE'
p154
sg24
S'class_exe32'
p155
sbasg20
I10
sg26
(dp156
sg28
(iPoint
Point
p157
(dp158
g31
I2
sg32
I2
sbsg33
(lp159
sg35
(lp160
sba(iCluster
Cluster
p161
(dp162
g16
(lp163
(iIndividual
Individual
p164
(dp165
g20
S'17'
p166
sg22
S'EXE'
p167
sg24
S'class_exe17'
p168
sbasg20
I11
sg26
(dp169
sg28
(iPoint
Point
p170
(dp171
g31
I3
sg32
I2
sbsg33
(lp172
sg35
(lp173
sba(iCluster
Cluster
p174
(dp175
g16
(lp176
(iIndividual
Individual
p177
(dp178
g20
S'142'
p179
sg22
S'EXE'
p180
sg24
S'class_exe142'
p181
sbasg20
I12
sg26
(dp182
sg28
(iPoint
Point
p183
(dp184
g31
I0
sg32
I3
sbsg33
(lp185
sg35
(lp186
sba(iCluster
Cluster
p187
(dp188
g16
(lp189
(iIndividual
Individual
p190
(dp191
g20
S'49'
p192
sg22
S'EXE'
p193
sg24
S'class_exe49'
p194
sbasg20
I13
sg26
(dp195
sg28
(iPoint
Point
p196
(dp197
g31
I1
sg32
I3
sbsg33
(lp198
sg35
(lp199
sba(iCluster
Cluster
p200
(dp201
g16
(lp202
(iIndividual
Individual
p203
(dp204
g20
S'65'
p205
sg22
S'EXE'
p206
sg24
S'class_exe65'
p207
sbasg20
I14
sg26
(dp208
sg28
(iPoint
Point
p209
(dp210
g31
I2
sg32
I3
sbsg33
(lp211
sg35
(lp212
sba(iCluster
Cluster
p213
(dp214
g16
(lp215
(iIndividual
Individual
p216
(dp217
g20
S'77'
p218
sg22
S'EXE'
p219
sg24
S'class_exe77'
p220
sbasg20
I15
sg26
(dp221
sg28
(iPoint
Point
p222
(dp223
g31
I3
sg32
I3
sbsg33
(lp224
sg35
(lp225
sbatp226
b.