cnumpy.core.multiarray
_reconstruct
p0
(cnumpy
ndarray
p1
(I0
tp2
S'b'
p3
tp4
Rp5
(I1
(I4
I4
tp6
cnumpy
dtype
p7
(S'O8'
p8
I0
I1
tp9
Rp10
(I3
S'|'
p11
NNNI-1
I-1
I63
tp12
bI00
(lp13
(iCluster
Cluster
p14
(dp15
S'prototipos'
p16
(lp17
(iIndividual
Individual
p18
(dp19
S'indice'
p20
S'4'
p21
sS'id2'
p22
S'AA04'
p23
sS'nome'
p24
S'I_5'
p25
sbasg20
I0
sS'deltas'
p26
(dp27
sS'point'
p28
(iPoint
Point
p29
(dp30
S'y'
p31
I0
sS'x'
p32
I0
sbsS'pesos'
p33
(lp34
sS'objetos'
p35
(lp36
sba(iCluster
Cluster
p37
(dp38
g16
(lp39
(iIndividual
Individual
p40
(dp41
g20
S'15'
p42
sg22
S'AA15'
p43
sg24
S'I_16'
p44
sbasg20
I1
sg26
(dp45
sg28
(iPoint
Point
p46
(dp47
g31
I1
sg32
I0
sbsg33
(lp48
sg35
(lp49
sba(iCluster
Cluster
p50
(dp51
g16
(lp52
(iIndividual
Individual
p53
(dp54
g20
S'87'
p55
sg22
S'AA87'
p56
sg24
S'I_88'
p57
sbasg20
I2
sg26
(dp58
sg28
(iPoint
Point
p59
(dp60
g31
I2
sg32
I0
sbsg33
(lp61
sg35
(lp62
sba(iCluster
Cluster
p63
(dp64
g16
(lp65
(iIndividual
Individual
p66
(dp67
g20
S'113'
p68
sg22
S'AAB3'
p69
sg24
S'I_114'
p70
sbasg20
I3
sg26
(dp71
sg28
(iPoint
Point
p72
(dp73
g31
I3
sg32
I0
sbsg33
(lp74
sg35
(lp75
sba(iCluster
Cluster
p76
(dp77
g16
(lp78
(iIndividual
Individual
p79
(dp80
g20
S'126'
p81
sg22
S'AAC6'
p82
sg24
S'I_127'
p83
sbasg20
I4
sg26
(dp84
sg28
(iPoint
Point
p85
(dp86
g31
I0
sg32
I1
sbsg33
(lp87
sg35
(lp88
sba(iCluster
Cluster
p89
(dp90
g16
(lp91
(iIndividual
Individual
p92
(dp93
g20
S'1'
p94
sg22
S'AA01'
p95
sg24
S'I_2'
p96
sbasg20
I5
sg26
(dp97
sg28
(iPoint
Point
p98
(dp99
g31
I1
sg32
I1
sbsg33
(lp100
sg35
(lp101
sba(iCluster
Cluster
p102
(dp103
g16
(lp104
(iIndividual
Individual
p105
(dp106
g20
S'71'
p107
sg22
S'AA71'
p108
sg24
S'I_72'
p109
sbasg20
I6
sg26
(dp110
sg28
(iPoint
Point
p111
(dp112
g31
I2
sg32
I1
sbsg33
(lp113
sg35
(lp114
sba(iCluster
Cluster
p115
(dp116
g16
(lp117
(iIndividual
Individual
p118
(dp119
g20
g55
sg22
g56
sg24
g57
sbasg20
I7
sg26
(dp120
sg28
(iPoint
Point
p121
(dp122
g31
I3
sg32
I1
sbsg33
(lp123
sg35
(lp124
sba(iCluster
Cluster
p125
(dp126
g16
(lp127
(iIndividual
Individual
p128
(dp129
g20
g55
sg22
g56
sg24
g57
sbasg20
I8
sg26
(dp130
sg28
(iPoint
Point
p131
(dp132
g31
I0
sg32
I2
sbsg33
(lp133
sg35
(lp134
sba(iCluster
Cluster
p135
(dp136
g16
(lp137
(iIndividual
Individual
p138
(dp139
g20
S'33'
p140
sg22
S'AA33'
p141
sg24
S'I_34'
p142
sbasg20
I9
sg26
(dp143
sg28
(iPoint
Point
p144
(dp145
g31
I1
sg32
I2
sbsg33
(lp146
sg35
(lp147
sba(iCluster
Cluster
p148
(dp149
g16
(lp150
(iIndividual
Individual
p151
(dp152
g20
S'125'
p153
sg22
S'AAC5'
p154
sg24
S'I_126'
p155
sbasg20
I10
sg26
(dp156
sg28
(iPoint
Point
p157
(dp158
g31
I2
sg32
I2
sbsg33
(lp159
sg35
(lp160
sba(iCluster
Cluster
p161
(dp162
g16
(lp163
(iIndividual
Individual
p164
(dp165
g20
g153
sg22
g154
sg24
g155
sbasg20
I11
sg26
(dp166
sg28
(iPoint
Point
p167
(dp168
g31
I3
sg32
I2
sbsg33
(lp169
sg35
(lp170
sba(iCluster
Cluster
p171
(dp172
g16
(lp173
(iIndividual
Individual
p174
(dp175
g20
S'97'
p176
sg22
S'AA97'
p177
sg24
S'I_98'
p178
sbasg20
I12
sg26
(dp179
sg28
(iPoint
Point
p180
(dp181
g31
I0
sg32
I3
sbsg33
(lp182
sg35
(lp183
sba(iCluster
Cluster
p184
(dp185
g16
(lp186
(iIndividual
Individual
p187
(dp188
g20
S'52'
p189
sg22
S'AA52'
p190
sg24
S'I_53'
p191
sbasg20
I13
sg26
(dp192
sg28
(iPoint
Point
p193
(dp194
g31
I1
sg32
I3
sbsg33
(lp195
sg35
(lp196
sba(iCluster
Cluster
p197
(dp198
g16
(lp199
(iIndividual
Individual
p200
(dp201
g20
S'63'
p202
sg22
S'AA63'
p203
sg24
S'I_64'
p204
sbasg20
I14
sg26
(dp205
sg28
(iPoint
Point
p206
(dp207
g31
I2
sg32
I3
sbsg33
(lp208
sg35
(lp209
sba(iCluster
Cluster
p210
(dp211
g16
(lp212
(iIndividual
Individual
p213
(dp214
g20
S'85'
p215
sg22
S'AA85'
p216
sg24
S'I_86'
p217
sbasg20
I15
sg26
(dp218
sg28
(iPoint
Point
p219
(dp220
g31
I3
sg32
I3
sbsg33
(lp221
sg35
(lp222
sbatp223
b.