cnumpy.core.multiarray
_reconstruct
p0
(cnumpy
ndarray
p1
(I0
tp2
S'b'
p3
tp4
Rp5
(I1
(I4
I4
tp6
cnumpy
dtype
p7
(S'O8'
p8
I0
I1
tp9
Rp10
(I3
S'|'
p11
NNNI-1
I-1
I63
tp12
bI00
(lp13
(iCluster
Cluster
p14
(dp15
S'prototipos'
p16
(lp17
(iIndividual
Individual
p18
(dp19
S'indice'
p20
S'27'
p21
sS'id2'
p22
S'AA27'
p23
sS'nome'
p24
S'I_28'
p25
sbasg20
I0
sS'deltas'
p26
(dp27
sS'point'
p28
(iPoint
Point
p29
(dp30
S'y'
p31
I0
sS'x'
p32
I0
sbsS'pesos'
p33
(lp34
sS'objetos'
p35
(lp36
sba(iCluster
Cluster
p37
(dp38
g16
(lp39
(iIndividual
Individual
p40
(dp41
g20
S'127'
p42
sg22
S'AAC7'
p43
sg24
S'I_128'
p44
sbasg20
I1
sg26
(dp45
sg28
(iPoint
Point
p46
(dp47
g31
I1
sg32
I0
sbsg33
(lp48
sg35
(lp49
sba(iCluster
Cluster
p50
(dp51
g16
(lp52
(iIndividual
Individual
p53
(dp54
g20
S'25'
p55
sg22
S'AA25'
p56
sg24
S'I_26'
p57
sbasg20
I2
sg26
(dp58
sg28
(iPoint
Point
p59
(dp60
g31
I2
sg32
I0
sbsg33
(lp61
sg35
(lp62
sba(iCluster
Cluster
p63
(dp64
g16
(lp65
(iIndividual
Individual
p66
(dp67
g20
S'21'
p68
sg22
S'AA21'
p69
sg24
S'I_22'
p70
sbasg20
I3
sg26
(dp71
sg28
(iPoint
Point
p72
(dp73
g31
I3
sg32
I0
sbsg33
(lp74
sg35
(lp75
sba(iCluster
Cluster
p76
(dp77
g16
(lp78
(iIndividual
Individual
p79
(dp80
g20
S'45'
p81
sg22
S'AA45'
p82
sg24
S'I_46'
p83
sbasg20
I4
sg26
(dp84
sg28
(iPoint
Point
p85
(dp86
g31
I0
sg32
I1
sbsg33
(lp87
sg35
(lp88
sba(iCluster
Cluster
p89
(dp90
g16
(lp91
(iIndividual
Individual
p92
(dp93
g20
S'148'
p94
sg22
S'AAE8'
p95
sg24
S'I_149'
p96
sbasg20
I5
sg26
(dp97
sg28
(iPoint
Point
p98
(dp99
g31
I1
sg32
I1
sbsg33
(lp100
sg35
(lp101
sba(iCluster
Cluster
p102
(dp103
g16
(lp104
(iIndividual
Individual
p105
(dp106
g20
S'6'
p107
sg22
S'AA06'
p108
sg24
S'I_7'
p109
sbasg20
I6
sg26
(dp110
sg28
(iPoint
Point
p111
(dp112
g31
I2
sg32
I1
sbsg33
(lp113
sg35
(lp114
sba(iCluster
Cluster
p115
(dp116
g16
(lp117
(iIndividual
Individual
p118
(dp119
g20
S'142'
p120
sg22
S'AAE2'
p121
sg24
S'I_143'
p122
sbasg20
I7
sg26
(dp123
sg28
(iPoint
Point
p124
(dp125
g31
I3
sg32
I1
sbsg33
(lp126
sg35
(lp127
sba(iCluster
Cluster
p128
(dp129
g16
(lp130
(iIndividual
Individual
p131
(dp132
g20
S'85'
p133
sg22
S'AA85'
p134
sg24
S'I_86'
p135
sbasg20
I8
sg26
(dp136
sg28
(iPoint
Point
p137
(dp138
g31
I0
sg32
I2
sbsg33
(lp139
sg35
(lp140
sba(iCluster
Cluster
p141
(dp142
g16
(lp143
(iIndividual
Individual
p144
(dp145
g20
S'140'
p146
sg22
S'AAE0'
p147
sg24
S'I_141'
p148
sbasg20
I9
sg26
(dp149
sg28
(iPoint
Point
p150
(dp151
g31
I1
sg32
I2
sbsg33
(lp152
sg35
(lp153
sba(iCluster
Cluster
p154
(dp155
g16
(lp156
(iIndividual
Individual
p157
(dp158
g20
S'60'
p159
sg22
S'AA60'
p160
sg24
S'I_61'
p161
sbasg20
I10
sg26
(dp162
sg28
(iPoint
Point
p163
(dp164
g31
I2
sg32
I2
sbsg33
(lp165
sg35
(lp166
sba(iCluster
Cluster
p167
(dp168
g16
(lp169
(iIndividual
Individual
p170
(dp171
g20
S'68'
p172
sg22
S'AA68'
p173
sg24
S'I_69'
p174
sbasg20
I11
sg26
(dp175
sg28
(iPoint
Point
p176
(dp177
g31
I3
sg32
I2
sbsg33
(lp178
sg35
(lp179
sba(iCluster
Cluster
p180
(dp181
g16
(lp182
(iIndividual
Individual
p183
(dp184
g20
S'18'
p185
sg22
S'AA18'
p186
sg24
S'I_19'
p187
sbasg20
I12
sg26
(dp188
sg28
(iPoint
Point
p189
(dp190
g31
I0
sg32
I3
sbsg33
(lp191
sg35
(lp192
sba(iCluster
Cluster
p193
(dp194
g16
(lp195
(iIndividual
Individual
p196
(dp197
g20
g185
sg22
g186
sg24
g187
sbasg20
I13
sg26
(dp198
sg28
(iPoint
Point
p199
(dp200
g31
I1
sg32
I3
sbsg33
(lp201
sg35
(lp202
sba(iCluster
Cluster
p203
(dp204
g16
(lp205
(iIndividual
Individual
p206
(dp207
g20
S'119'
p208
sg22
S'AAB9'
p209
sg24
S'I_120'
p210
sbasg20
I14
sg26
(dp211
sg28
(iPoint
Point
p212
(dp213
g31
I2
sg32
I3
sbsg33
(lp214
sg35
(lp215
sba(iCluster
Cluster
p216
(dp217
g16
(lp218
(iIndividual
Individual
p219
(dp220
g20
S'100'
p221
sg22
S'AAA0'
p222
sg24
S'I_101'
p223
sbasg20
I15
sg26
(dp224
sg28
(iPoint
Point
p225
(dp226
g31
I3
sg32
I3
sbsg33
(lp227
sg35
(lp228
sbatp229
b.