cnumpy.core.multiarray
_reconstruct
p0
(cnumpy
ndarray
p1
(I0
tp2
S'b'
p3
tp4
Rp5
(I1
(I4
I4
tp6
cnumpy
dtype
p7
(S'O8'
p8
I0
I1
tp9
Rp10
(I3
S'|'
p11
NNNI-1
I-1
I63
tp12
bI00
(lp13
(iCluster
Cluster
p14
(dp15
S'prototipos'
p16
(lp17
(iIndividual
Individual
p18
(dp19
S'indice'
p20
S'24'
p21
sS'id2'
p22
S'AA24'
p23
sS'nome'
p24
S'I_25'
p25
sbasg20
I0
sS'deltas'
p26
(dp27
sS'point'
p28
(iPoint
Point
p29
(dp30
S'y'
p31
I0
sS'x'
p32
I0
sbsS'pesos'
p33
(lp34
sS'objetos'
p35
(lp36
sba(iCluster
Cluster
p37
(dp38
g16
(lp39
(iIndividual
Individual
p40
(dp41
g20
S'142'
p42
sg22
S'AAE2'
p43
sg24
S'I_143'
p44
sbasg20
I1
sg26
(dp45
sg28
(iPoint
Point
p46
(dp47
g31
I1
sg32
I0
sbsg33
(lp48
sg35
(lp49
sba(iCluster
Cluster
p50
(dp51
g16
(lp52
(iIndividual
Individual
p53
(dp54
g20
S'125'
p55
sg22
S'AAC5'
p56
sg24
S'I_126'
p57
sbasg20
I2
sg26
(dp58
sg28
(iPoint
Point
p59
(dp60
g31
I2
sg32
I0
sbsg33
(lp61
sg35
(lp62
sba(iCluster
Cluster
p63
(dp64
g16
(lp65
(iIndividual
Individual
p66
(dp67
g20
S'2'
p68
sg22
S'AA02'
p69
sg24
S'I_3'
p70
sbasg20
I3
sg26
(dp71
sg28
(iPoint
Point
p72
(dp73
g31
I3
sg32
I0
sbsg33
(lp74
sg35
(lp75
sba(iCluster
Cluster
p76
(dp77
g16
(lp78
(iIndividual
Individual
p79
(dp80
g20
S'50'
p81
sg22
S'AA50'
p82
sg24
S'I_51'
p83
sbasg20
I4
sg26
(dp84
sg28
(iPoint
Point
p85
(dp86
g31
I0
sg32
I1
sbsg33
(lp87
sg35
(lp88
sba(iCluster
Cluster
p89
(dp90
g16
(lp91
(iIndividual
Individual
p92
(dp93
g20
S'87'
p94
sg22
S'AA87'
p95
sg24
S'I_88'
p96
sbasg20
I5
sg26
(dp97
sg28
(iPoint
Point
p98
(dp99
g31
I1
sg32
I1
sbsg33
(lp100
sg35
(lp101
sba(iCluster
Cluster
p102
(dp103
g16
(lp104
(iIndividual
Individual
p105
(dp106
g20
S'105'
p107
sg22
S'AAA5'
p108
sg24
S'I_106'
p109
sbasg20
I6
sg26
(dp110
sg28
(iPoint
Point
p111
(dp112
g31
I2
sg32
I1
sbsg33
(lp113
sg35
(lp114
sba(iCluster
Cluster
p115
(dp116
g16
(lp117
(iIndividual
Individual
p118
(dp119
g20
g94
sg22
g95
sg24
g96
sbasg20
I7
sg26
(dp120
sg28
(iPoint
Point
p121
(dp122
g31
I3
sg32
I1
sbsg33
(lp123
sg35
(lp124
sba(iCluster
Cluster
p125
(dp126
g16
(lp127
(iIndividual
Individual
p128
(dp129
g20
S'43'
p130
sg22
S'AA43'
p131
sg24
S'I_44'
p132
sbasg20
I8
sg26
(dp133
sg28
(iPoint
Point
p134
(dp135
g31
I0
sg32
I2
sbsg33
(lp136
sg35
(lp137
sba(iCluster
Cluster
p138
(dp139
g16
(lp140
(iIndividual
Individual
p141
(dp142
g20
S'127'
p143
sg22
S'AAC7'
p144
sg24
S'I_128'
p145
sbasg20
I9
sg26
(dp146
sg28
(iPoint
Point
p147
(dp148
g31
I1
sg32
I2
sbsg33
(lp149
sg35
(lp150
sba(iCluster
Cluster
p151
(dp152
g16
(lp153
(iIndividual
Individual
p154
(dp155
g20
S'80'
p156
sg22
S'AA80'
p157
sg24
S'I_81'
p158
sbasg20
I10
sg26
(dp159
sg28
(iPoint
Point
p160
(dp161
g31
I2
sg32
I2
sbsg33
(lp162
sg35
(lp163
sba(iCluster
Cluster
p164
(dp165
g16
(lp166
(iIndividual
Individual
p167
(dp168
g20
S'46'
p169
sg22
S'AA46'
p170
sg24
S'I_47'
p171
sbasg20
I11
sg26
(dp172
sg28
(iPoint
Point
p173
(dp174
g31
I3
sg32
I2
sbsg33
(lp175
sg35
(lp176
sba(iCluster
Cluster
p177
(dp178
g16
(lp179
(iIndividual
Individual
p180
(dp181
g20
S'66'
p182
sg22
S'AA66'
p183
sg24
S'I_67'
p184
sbasg20
I12
sg26
(dp185
sg28
(iPoint
Point
p186
(dp187
g31
I0
sg32
I3
sbsg33
(lp188
sg35
(lp189
sba(iCluster
Cluster
p190
(dp191
g16
(lp192
(iIndividual
Individual
p193
(dp194
g20
S'107'
p195
sg22
S'AAA7'
p196
sg24
S'I_108'
p197
sbasg20
I13
sg26
(dp198
sg28
(iPoint
Point
p199
(dp200
g31
I1
sg32
I3
sbsg33
(lp201
sg35
(lp202
sba(iCluster
Cluster
p203
(dp204
g16
(lp205
(iIndividual
Individual
p206
(dp207
g20
S'26'
p208
sg22
S'AA26'
p209
sg24
S'I_27'
p210
sbasg20
I14
sg26
(dp211
sg28
(iPoint
Point
p212
(dp213
g31
I2
sg32
I3
sbsg33
(lp214
sg35
(lp215
sba(iCluster
Cluster
p216
(dp217
g16
(lp218
(iIndividual
Individual
p219
(dp220
g20
S'135'
p221
sg22
S'AAD5'
p222
sg24
S'I_136'
p223
sbasg20
I15
sg26
(dp224
sg28
(iPoint
Point
p225
(dp226
g31
I3
sg32
I3
sbsg33
(lp227
sg35
(lp228
sbatp229
b.