cnumpy.core.multiarray
_reconstruct
p0
(cnumpy
ndarray
p1
(I0
tp2
S'b'
p3
tp4
Rp5
(I1
(I4
I4
tp6
cnumpy
dtype
p7
(S'O8'
p8
I0
I1
tp9
Rp10
(I3
S'|'
p11
NNNI-1
I-1
I63
tp12
bI00
(lp13
(iCluster
Cluster
p14
(dp15
S'prototipos'
p16
(lp17
(iIndividual
Individual
p18
(dp19
S'indice'
p20
S'102'
p21
sS'id2'
p22
S'AAA2'
p23
sS'nome'
p24
S'I_103'
p25
sbasg20
I0
sS'deltas'
p26
(dp27
sS'point'
p28
(iPoint
Point
p29
(dp30
S'y'
p31
I0
sS'x'
p32
I0
sbsS'pesos'
p33
(lp34
sS'objetos'
p35
(lp36
sba(iCluster
Cluster
p37
(dp38
g16
(lp39
(iIndividual
Individual
p40
(dp41
g20
S'40'
p42
sg22
S'AA40'
p43
sg24
S'I_41'
p44
sbasg20
I1
sg26
(dp45
sg28
(iPoint
Point
p46
(dp47
g31
I1
sg32
I0
sbsg33
(lp48
sg35
(lp49
sba(iCluster
Cluster
p50
(dp51
g16
(lp52
(iIndividual
Individual
p53
(dp54
g20
S'116'
p55
sg22
S'AAB6'
p56
sg24
S'I_117'
p57
sbasg20
I2
sg26
(dp58
sg28
(iPoint
Point
p59
(dp60
g31
I2
sg32
I0
sbsg33
(lp61
sg35
(lp62
sba(iCluster
Cluster
p63
(dp64
g16
(lp65
(iIndividual
Individual
p66
(dp67
g20
S'47'
p68
sg22
S'AA47'
p69
sg24
S'I_48'
p70
sbasg20
I3
sg26
(dp71
sg28
(iPoint
Point
p72
(dp73
g31
I3
sg32
I0
sbsg33
(lp74
sg35
(lp75
sba(iCluster
Cluster
p76
(dp77
g16
(lp78
(iIndividual
Individual
p79
(dp80
g20
g42
sg22
g43
sg24
g44
sbasg20
I4
sg26
(dp81
sg28
(iPoint
Point
p82
(dp83
g31
I0
sg32
I1
sbsg33
(lp84
sg35
(lp85
sba(iCluster
Cluster
p86
(dp87
g16
(lp88
(iIndividual
Individual
p89
(dp90
g20
S'29'
p91
sg22
S'AA29'
p92
sg24
S'I_30'
p93
sbasg20
I5
sg26
(dp94
sg28
(iPoint
Point
p95
(dp96
g31
I1
sg32
I1
sbsg33
(lp97
sg35
(lp98
sba(iCluster
Cluster
p99
(dp100
g16
(lp101
(iIndividual
Individual
p102
(dp103
g20
S'139'
p104
sg22
S'AAD9'
p105
sg24
S'I_140'
p106
sbasg20
I6
sg26
(dp107
sg28
(iPoint
Point
p108
(dp109
g31
I2
sg32
I1
sbsg33
(lp110
sg35
(lp111
sba(iCluster
Cluster
p112
(dp113
g16
(lp114
(iIndividual
Individual
p115
(dp116
g20
S'132'
p117
sg22
S'AAD2'
p118
sg24
S'I_133'
p119
sbasg20
I7
sg26
(dp120
sg28
(iPoint
Point
p121
(dp122
g31
I3
sg32
I1
sbsg33
(lp123
sg35
(lp124
sba(iCluster
Cluster
p125
(dp126
g16
(lp127
(iIndividual
Individual
p128
(dp129
g20
S'63'
p130
sg22
S'AA63'
p131
sg24
S'I_64'
p132
sbasg20
I8
sg26
(dp133
sg28
(iPoint
Point
p134
(dp135
g31
I0
sg32
I2
sbsg33
(lp136
sg35
(lp137
sba(iCluster
Cluster
p138
(dp139
g16
(lp140
(iIndividual
Individual
p141
(dp142
g20
S'106'
p143
sg22
S'AAA6'
p144
sg24
S'I_107'
p145
sbasg20
I9
sg26
(dp146
sg28
(iPoint
Point
p147
(dp148
g31
I1
sg32
I2
sbsg33
(lp149
sg35
(lp150
sba(iCluster
Cluster
p151
(dp152
g16
(lp153
(iIndividual
Individual
p154
(dp155
g20
S'57'
p156
sg22
S'AA57'
p157
sg24
S'I_58'
p158
sbasg20
I10
sg26
(dp159
sg28
(iPoint
Point
p160
(dp161
g31
I2
sg32
I2
sbsg33
(lp162
sg35
(lp163
sba(iCluster
Cluster
p164
(dp165
g16
(lp166
(iIndividual
Individual
p167
(dp168
g20
S'24'
p169
sg22
S'AA24'
p170
sg24
S'I_25'
p171
sbasg20
I11
sg26
(dp172
sg28
(iPoint
Point
p173
(dp174
g31
I3
sg32
I2
sbsg33
(lp175
sg35
(lp176
sba(iCluster
Cluster
p177
(dp178
g16
(lp179
(iIndividual
Individual
p180
(dp181
g20
S'130'
p182
sg22
S'AAD0'
p183
sg24
S'I_131'
p184
sbasg20
I12
sg26
(dp185
sg28
(iPoint
Point
p186
(dp187
g31
I0
sg32
I3
sbsg33
(lp188
sg35
(lp189
sba(iCluster
Cluster
p190
(dp191
g16
(lp192
(iIndividual
Individual
p193
(dp194
g20
g91
sg22
g92
sg24
g93
sbasg20
I13
sg26
(dp195
sg28
(iPoint
Point
p196
(dp197
g31
I1
sg32
I3
sbsg33
(lp198
sg35
(lp199
sba(iCluster
Cluster
p200
(dp201
g16
(lp202
(iIndividual
Individual
p203
(dp204
g20
S'55'
p205
sg22
S'AA55'
p206
sg24
S'I_56'
p207
sbasg20
I14
sg26
(dp208
sg28
(iPoint
Point
p209
(dp210
g31
I2
sg32
I3
sbsg33
(lp211
sg35
(lp212
sba(iCluster
Cluster
p213
(dp214
g16
(lp215
(iIndividual
Individual
p216
(dp217
g20
S'104'
p218
sg22
S'AAA4'
p219
sg24
S'I_105'
p220
sbasg20
I15
sg26
(dp221
sg28
(iPoint
Point
p222
(dp223
g31
I3
sg32
I3
sbsg33
(lp224
sg35
(lp225
sbatp226
b.