cnumpy.core.multiarray
_reconstruct
p0
(cnumpy
ndarray
p1
(I0
tp2
S'b'
p3
tp4
Rp5
(I1
(I4
I4
tp6
cnumpy
dtype
p7
(S'O8'
p8
I0
I1
tp9
Rp10
(I3
S'|'
p11
NNNI-1
I-1
I63
tp12
bI00
(lp13
(iCluster
Cluster
p14
(dp15
S'prototipos'
p16
(lp17
(iIndividual
Individual
p18
(dp19
S'indice'
p20
S'54'
p21
sS'id2'
p22
S'AA54'
p23
sS'nome'
p24
S'I_55'
p25
sbasg20
I0
sS'deltas'
p26
(dp27
sS'point'
p28
(iPoint
Point
p29
(dp30
S'y'
p31
I0
sS'x'
p32
I0
sbsS'pesos'
p33
(lp34
sS'objetos'
p35
(lp36
sba(iCluster
Cluster
p37
(dp38
g16
(lp39
(iIndividual
Individual
p40
(dp41
g20
g21
sg22
g23
sg24
g25
sbasg20
I1
sg26
(dp42
sg28
(iPoint
Point
p43
(dp44
g31
I1
sg32
I0
sbsg33
(lp45
sg35
(lp46
sba(iCluster
Cluster
p47
(dp48
g16
(lp49
(iIndividual
Individual
p50
(dp51
g20
S'100'
p52
sg22
S'AAA0'
p53
sg24
S'I_101'
p54
sbasg20
I2
sg26
(dp55
sg28
(iPoint
Point
p56
(dp57
g31
I2
sg32
I0
sbsg33
(lp58
sg35
(lp59
sba(iCluster
Cluster
p60
(dp61
g16
(lp62
(iIndividual
Individual
p63
(dp64
g20
S'104'
p65
sg22
S'AAA4'
p66
sg24
S'I_105'
p67
sbasg20
I3
sg26
(dp68
sg28
(iPoint
Point
p69
(dp70
g31
I3
sg32
I0
sbsg33
(lp71
sg35
(lp72
sba(iCluster
Cluster
p73
(dp74
g16
(lp75
(iIndividual
Individual
p76
(dp77
g20
S'103'
p78
sg22
S'AAA3'
p79
sg24
S'I_104'
p80
sbasg20
I4
sg26
(dp81
sg28
(iPoint
Point
p82
(dp83
g31
I0
sg32
I1
sbsg33
(lp84
sg35
(lp85
sba(iCluster
Cluster
p86
(dp87
g16
(lp88
(iIndividual
Individual
p89
(dp90
g20
S'33'
p91
sg22
S'AA33'
p92
sg24
S'I_34'
p93
sbasg20
I5
sg26
(dp94
sg28
(iPoint
Point
p95
(dp96
g31
I1
sg32
I1
sbsg33
(lp97
sg35
(lp98
sba(iCluster
Cluster
p99
(dp100
g16
(lp101
(iIndividual
Individual
p102
(dp103
g20
S'78'
p104
sg22
S'AA78'
p105
sg24
S'I_79'
p106
sbasg20
I6
sg26
(dp107
sg28
(iPoint
Point
p108
(dp109
g31
I2
sg32
I1
sbsg33
(lp110
sg35
(lp111
sba(iCluster
Cluster
p112
(dp113
g16
(lp114
(iIndividual
Individual
p115
(dp116
g20
S'51'
p117
sg22
S'AA51'
p118
sg24
S'I_52'
p119
sbasg20
I7
sg26
(dp120
sg28
(iPoint
Point
p121
(dp122
g31
I3
sg32
I1
sbsg33
(lp123
sg35
(lp124
sba(iCluster
Cluster
p125
(dp126
g16
(lp127
(iIndividual
Individual
p128
(dp129
g20
g21
sg22
g23
sg24
g25
sbasg20
I8
sg26
(dp130
sg28
(iPoint
Point
p131
(dp132
g31
I0
sg32
I2
sbsg33
(lp133
sg35
(lp134
sba(iCluster
Cluster
p135
(dp136
g16
(lp137
(iIndividual
Individual
p138
(dp139
g20
S'93'
p140
sg22
S'AA93'
p141
sg24
S'I_94'
p142
sbasg20
I9
sg26
(dp143
sg28
(iPoint
Point
p144
(dp145
g31
I1
sg32
I2
sbsg33
(lp146
sg35
(lp147
sba(iCluster
Cluster
p148
(dp149
g16
(lp150
(iIndividual
Individual
p151
(dp152
g20
S'83'
p153
sg22
S'AA83'
p154
sg24
S'I_84'
p155
sbasg20
I10
sg26
(dp156
sg28
(iPoint
Point
p157
(dp158
g31
I2
sg32
I2
sbsg33
(lp159
sg35
(lp160
sba(iCluster
Cluster
p161
(dp162
g16
(lp163
(iIndividual
Individual
p164
(dp165
g20
S'119'
p166
sg22
S'AAB9'
p167
sg24
S'I_120'
p168
sbasg20
I11
sg26
(dp169
sg28
(iPoint
Point
p170
(dp171
g31
I3
sg32
I2
sbsg33
(lp172
sg35
(lp173
sba(iCluster
Cluster
p174
(dp175
g16
(lp176
(iIndividual
Individual
p177
(dp178
g20
g78
sg22
g79
sg24
g80
sbasg20
I12
sg26
(dp179
sg28
(iPoint
Point
p180
(dp181
g31
I0
sg32
I3
sbsg33
(lp182
sg35
(lp183
sba(iCluster
Cluster
p184
(dp185
g16
(lp186
(iIndividual
Individual
p187
(dp188
g20
S'61'
p189
sg22
S'AA61'
p190
sg24
S'I_62'
p191
sbasg20
I13
sg26
(dp192
sg28
(iPoint
Point
p193
(dp194
g31
I1
sg32
I3
sbsg33
(lp195
sg35
(lp196
sba(iCluster
Cluster
p197
(dp198
g16
(lp199
(iIndividual
Individual
p200
(dp201
g20
S'2'
p202
sg22
S'AA02'
p203
sg24
S'I_3'
p204
sbasg20
I14
sg26
(dp205
sg28
(iPoint
Point
p206
(dp207
g31
I2
sg32
I3
sbsg33
(lp208
sg35
(lp209
sba(iCluster
Cluster
p210
(dp211
g16
(lp212
(iIndividual
Individual
p213
(dp214
g20
S'49'
p215
sg22
S'AA49'
p216
sg24
S'I_50'
p217
sbasg20
I15
sg26
(dp218
sg28
(iPoint
Point
p219
(dp220
g31
I3
sg32
I3
sbsg33
(lp221
sg35
(lp222
sbatp223
b.